target datalayout = "e-m:e-p270:32:32-p271:32:32-p272:64:64-i64:64-i128:128-f80:128-n8:16:32:64-S128"
target triple = "x86_64-pc-linux-gnu"

%struct.AVRational = type { i32, i32 }

@.str.4 = private unnamed_addr constant [13 x i8] c"%d:%d:%d%c%d\00", align 1
@.str.5 = private unnamed_addr constant [51 x i8] c"Unable to parse timecode, syntax: hh:mm:ss[:;.]ff\0A\00", align 1

; Function Attrs: nounwind uwtable
define i32 @av_timecode_init_from_string(ptr noundef %0, i64 %1, ptr noundef %2, ptr noundef %3) #0 {
  %5 = alloca i32, align 4
  %6 = alloca %struct.AVRational, align 4
  %7 = alloca ptr, align 8
  %8 = alloca ptr, align 8
  %9 = alloca ptr, align 8
  %10 = alloca i8, align 1
  %11 = alloca i32, align 4
  %12 = alloca i32, align 4
  %13 = alloca i32, align 4
  %14 = alloca i32, align 4
  %15 = alloca i32, align 4
  %16 = alloca i32, align 4
  store i64 %1, ptr %6, align 4
  store ptr %0, ptr %7, align 8, !tbaa !8
  store ptr %2, ptr %8, align 8, !tbaa !19
  store ptr %3, ptr %9, align 8, !tbaa !8
  call void @llvm.lifetime.start.p0(i64 1, ptr %10) #8
  call void @llvm.lifetime.start.p0(i64 4, ptr %11) #8
  call void @llvm.lifetime.start.p0(i64 4, ptr %12) #8
  call void @llvm.lifetime.start.p0(i64 4, ptr %13) #8
  call void @llvm.lifetime.start.p0(i64 4, ptr %14) #8
  call void @llvm.lifetime.start.p0(i64 4, ptr %15) #8
  %17 = load ptr, ptr %8, align 8, !tbaa !19
  %18 = call i32 (ptr, ptr, ...) @__isoc99_sscanf(ptr noundef %17, ptr noundef @.str.4, ptr noundef %11, ptr noundef %12, ptr noundef %13, ptr noundef %10, ptr noundef %14) #8
  %19 = icmp ne i32 %18, 5
  br i1 %19, label %20, label %22

20:                                               ; preds = %4
  %21 = load ptr, ptr %9, align 8, !tbaa !8
  call void (ptr, i32, ptr, ...) @av_log(ptr noundef %21, i32 noundef 16, ptr noundef @.str.5)
  store i32 -1094995529, ptr %5, align 4
  store i32 1, ptr %16, align 4
  br label %36

22:                                               ; preds = %4
  %23 = load i8, ptr %10, align 1, !tbaa !26
  %24 = sext i8 %23 to i32
  %25 = icmp ne i32 %24, 58
  %26 = select i1 %25, i32 1, i32 0
  store i32 %26, ptr %15, align 4, !tbaa !4
  %27 = load ptr, ptr %7, align 8, !tbaa !8
  %28 = load i32, ptr %15, align 4, !tbaa !4
  %29 = load i32, ptr %11, align 4, !tbaa !4
  %30 = load i32, ptr %12, align 4, !tbaa !4
  %31 = load i32, ptr %13, align 4, !tbaa !4
  %32 = load i32, ptr %14, align 4, !tbaa !4
  %33 = load ptr, ptr %9, align 8, !tbaa !8
  %34 = load i64, ptr %6, align 4
  %35 = call i32 @av_timecode_init_from_components(ptr noundef %27, i64 %34, i32 noundef %28, i32 noundef %29, i32 noundef %30, i32 noundef %31, i32 noundef %32, ptr noundef %33)
  store i32 %35, ptr %5, align 4
  store i32 1, ptr %16, align 4
  br label %36

36:                                               ; preds = %22, %20
  call void @llvm.lifetime.end.p0(i64 4, ptr %15) #8
  call void @llvm.lifetime.end.p0(i64 4, ptr %14) #8
  call void @llvm.lifetime.end.p0(i64 4, ptr %13) #8
  call void @llvm.lifetime.end.p0(i64 4, ptr %12) #8
  call void @llvm.lifetime.end.p0(i64 4, ptr %11) #8
  call void @llvm.lifetime.end.p0(i64 1, ptr %10) #8
  %37 = load i32, ptr %5, align 4
  ret i32 %37
}