; Function Attrs: nounwind uwtable
define range(i32 -1094995529, 1) i32 @av_timecode_init_from_string(ptr noundef captures(none) %0, i64 %1, ptr noundef readonly captures(none) %2, ptr noundef %3) local_unnamed_addr #5 {
  %5 = alloca i8, align 1
  %6 = alloca i32, align 4
  %7 = alloca i32, align 4
  %8 = alloca i32, align 4
  %9 = alloca i32, align 4
  call void @llvm.lifetime.start.p0(i64 1, ptr nonnull %5) #10
  call void @llvm.lifetime.start.p0(i64 4, ptr nonnull %6) #10
  call void @llvm.lifetime.start.p0(i64 4, ptr nonnull %7) #10
  call void @llvm.lifetime.start.p0(i64 4, ptr nonnull %8) #10
  call void @llvm.lifetime.start.p0(i64 4, ptr nonnull %9) #10
  %10 = call i32 (ptr, ptr, ...) @__isoc99_sscanf(ptr noundef %2, ptr noundef nonnull @.str.4, ptr noundef nonnull %6, ptr noundef nonnull %7, ptr noundef nonnull %8, ptr noundef nonnull %5, ptr noundef nonnull %9) #10
  %.not = icmp eq i32 %10, 5
  br i1 %.not, label %12, label %11

11:                                               ; preds = %4
  call void (ptr, i32, ptr, ...) @av_log(ptr noundef %3, i32 noundef 16, ptr noundef nonnull @.str.5) #10
  br label %20

12:                                               ; preds = %4
  %13 = load i8, ptr %5, align 1, !tbaa !15
  %.not5 = icmp ne i8 %13, 58
  %14 = zext i1 %.not5 to i32
  %15 = load i32, ptr %6, align 4, !tbaa !12
  %16 = load i32, ptr %7, align 4, !tbaa !12
  %17 = load i32, ptr %8, align 4, !tbaa !12
  %18 = load i32, ptr %9, align 4, !tbaa !12
  %19 = call i32 @av_timecode_init_from_components(ptr noundef %0, i64 %1, i32 noundef %14, i32 noundef %15, i32 noundef %16, i32 noundef %17, i32 noundef %18, ptr noundef %3)
  br label %20

20:                                               ; preds = %12, %11
  %.0 = phi i32 [ -1094995529, %11 ], [ %19, %12 ]
  call void @llvm.lifetime.end.p0(i64 4, ptr nonnull %9) #10
  call void @llvm.lifetime.end.p0(i64 4, ptr nonnull %8) #10
  call void @llvm.lifetime.end.p0(i64 4, ptr nonnull %7) #10
  call void @llvm.lifetime.end.p0(i64 4, ptr nonnull %6) #10
  call void @llvm.lifetime.end.p0(i64 1, ptr nonnull %5) #10
  ret i32 %.0
}